target datalayout = "e-m:e-p270:32:32-p271:32:32-p272:64:64-i64:64-i128:128-f80:128-n8:16:32:64-S128"
target triple = "x86_64-pc-linux-gnu"

@_ZL7decoder = internal global [96 x i8] c"\FFD\FFTSRH\FFKLFA\FF?>E\00\01\02\03\04\05\06\07\08\09@\FFIBJGQ$%&'()*+,-./0123456789:;<=M\FFNC\FF\FF\0A\0B\0C\0D\0E\0F\10\11\12\13\14\15\16\17\18\19\1A\1B\1C\1D\1E\1F !\22#O\FFP\FF\FF", align 16

; Function Attrs: mustprogress nounwind uwtable
define ptr @zmq_z85_decode(ptr noundef %0, ptr noundef %1) #7 {
  %3 = alloca ptr, align 8
  %4 = alloca ptr, align 8
  %5 = alloca ptr, align 8
  %6 = alloca i32, align 4
  %7 = alloca i32, align 4
  %8 = alloca i32, align 4
  %9 = alloca i64, align 8
  %10 = alloca i8, align 1
  %11 = alloca i32, align 4
  %12 = alloca i32, align 4
  %13 = alloca i32, align 4
  store ptr %0, ptr %4, align 8, !tbaa !33
  store ptr %1, ptr %5, align 8, !tbaa !33
  call void @llvm.lifetime.start.p0(i64 4, ptr %6) #15
  store i32 0, ptr %6, align 4, !tbaa !3
  call void @llvm.lifetime.start.p0(i64 4, ptr %7) #15
  store i32 0, ptr %7, align 4, !tbaa !3
  call void @llvm.lifetime.start.p0(i64 4, ptr %8) #15
  store i32 0, ptr %8, align 4, !tbaa !3
  call void @llvm.lifetime.start.p0(i64 8, ptr %9) #15
  %14 = load ptr, ptr %5, align 8, !tbaa !33
  %15 = call i64 @strlen(ptr noundef %14) #20
  store i64 %15, ptr %9, align 8, !tbaa !12
  %16 = load i64, ptr %9, align 8, !tbaa !12
  %17 = icmp ult i64 %16, 5
  br i1 %17, label %22, label %18

18:                                               ; preds = %2
  %19 = load i64, ptr %9, align 8, !tbaa !12
  %20 = urem i64 %19, 5
  %21 = icmp ne i64 %20, 0
  br i1 %21, label %22, label %23

22:                                               ; preds = %18, %2
  br label %102

23:                                               ; preds = %18
  br label %24

24:                                               ; preds = %94, %23
  %25 = load ptr, ptr %5, align 8, !tbaa !33
  %26 = load i32, ptr %7, align 4, !tbaa !3
  %27 = zext i32 %26 to i64
  %28 = getelementptr inbounds nuw i8, ptr %25, i64 %27
  %29 = load i8, ptr %28, align 1, !tbaa !35
  %30 = icmp ne i8 %29, 0
  br i1 %30, label %31, label %95

31:                                               ; preds = %24
  %32 = load i32, ptr %8, align 4, !tbaa !3
  %33 = icmp ult i32 50529027, %32
  br i1 %33, label %34, label %35

34:                                               ; preds = %31
  br label %102

35:                                               ; preds = %31
  %36 = load i32, ptr %8, align 4, !tbaa !3
  %37 = mul i32 %36, 85
  store i32 %37, ptr %8, align 4, !tbaa !3
  call void @llvm.lifetime.start.p0(i64 1, ptr %10) #15
  %38 = load ptr, ptr %5, align 8, !tbaa !33
  %39 = load i32, ptr %7, align 4, !tbaa !3
  %40 = add i32 %39, 1
  store i32 %40, ptr %7, align 4, !tbaa !3
  %41 = zext i32 %39 to i64
  %42 = getelementptr inbounds nuw i8, ptr %38, i64 %41
  %43 = load i8, ptr %42, align 1, !tbaa !35
  %44 = sext i8 %43 to i32
  %45 = sub nsw i32 %44, 32
  %46 = trunc i32 %45 to i8
  store i8 %46, ptr %10, align 1, !tbaa !35
  %47 = load i8, ptr %10, align 1, !tbaa !35
  %48 = zext i8 %47 to i64
  %49 = icmp uge i64 %48, 96
  br i1 %49, label %50, label %51

50:                                               ; preds = %35
  store i32 2, ptr %13, align 4
  br label %92

51:                                               ; preds = %35
  call void @llvm.lifetime.start.p0(i64 4, ptr %11) #15
  %52 = load i8, ptr %10, align 1, !tbaa !35
  %53 = zext i8 %52 to i64
  %54 = getelementptr inbounds nuw [96 x i8], ptr @_ZL7decoder, i64 0, i64 %53
  %55 = load i8, ptr %54, align 1, !tbaa !35
  %56 = zext i8 %55 to i32
  store i32 %56, ptr %11, align 4, !tbaa !3
  %57 = load i32, ptr %11, align 4, !tbaa !3
  %58 = icmp eq i32 %57, 255
  br i1 %58, label %64, label %59

59:                                               ; preds = %51
  %60 = load i32, ptr %11, align 4, !tbaa !3
  %61 = load i32, ptr %8, align 4, !tbaa !3
  %62 = sub i32 -1, %61
  %63 = icmp ugt i32 %60, %62
  br i1 %63, label %64, label %65

64:                                               ; preds = %59, %51
  store i32 2, ptr %13, align 4
  br label %91

65:                                               ; preds = %59
  %66 = load i32, ptr %11, align 4, !tbaa !3
  %67 = load i32, ptr %8, align 4, !tbaa !3
  %68 = add i32 %67, %66
  store i32 %68, ptr %8, align 4, !tbaa !3
  %69 = load i32, ptr %7, align 4, !tbaa !3
  %70 = urem i32 %69, 5
  %71 = icmp eq i32 %70, 0
  br i1 %71, label %72, label %90

72:                                               ; preds = %65
  call void @llvm.lifetime.start.p0(i64 4, ptr %12) #15
  store i32 16777216, ptr %12, align 4, !tbaa !3
  br label %73

73:                                               ; preds = %76, %72
  %74 = load i32, ptr %12, align 4, !tbaa !3
  %75 = icmp ne i32 %74, 0
  br i1 %75, label %76, label %89

76:                                               ; preds = %73
  %77 = load i32, ptr %8, align 4, !tbaa !3
  %78 = load i32, ptr %12, align 4, !tbaa !3
  %79 = udiv i32 %77, %78
  %80 = urem i32 %79, 256
  %81 = trunc i32 %80 to i8
  %82 = load ptr, ptr %4, align 8, !tbaa !33
  %83 = load i32, ptr %6, align 4, !tbaa !3
  %84 = add i32 %83, 1
  store i32 %84, ptr %6, align 4, !tbaa !3
  %85 = zext i32 %83 to i64
  %86 = getelementptr inbounds nuw i8, ptr %82, i64 %85
  store i8 %81, ptr %86, align 1, !tbaa !35
  %87 = load i32, ptr %12, align 4, !tbaa !3
  %88 = udiv i32 %87, 256
  store i32 %88, ptr %12, align 4, !tbaa !3
  br label %73, !llvm.loop !39

89:                                               ; preds = %73
  store i32 0, ptr %8, align 4, !tbaa !3
  call void @llvm.lifetime.end.p0(i64 4, ptr %12) #15
  br label %90

90:                                               ; preds = %89, %65
  store i32 0, ptr %13, align 4
  br label %91

91:                                               ; preds = %64, %90
  call void @llvm.lifetime.end.p0(i64 4, ptr %11) #15
  br label %92

92:                                               ; preds = %50, %91
  call void @llvm.lifetime.end.p0(i64 1, ptr %10) #15
  %93 = load i32, ptr %13, align 4
  switch i32 %93, label %104 [
    i32 0, label %94
    i32 2, label %102
  ]

94:                                               ; preds = %92
  br label %24, !llvm.loop !40

95:                                               ; preds = %24
  %96 = load i32, ptr %7, align 4, !tbaa !3
  %97 = urem i32 %96, 5
  %98 = icmp ne i32 %97, 0
  br i1 %98, label %99, label %100

99:                                               ; preds = %95
  br label %102

100:                                              ; preds = %95
  %101 = load ptr, ptr %4, align 8, !tbaa !33
  store ptr %101, ptr %3, align 8
  store i32 1, ptr %13, align 4
  br label %104

102:                                              ; preds = %92, %99, %34, %22
  %103 = call ptr @__errno_location() #19
  store i32 22, ptr %103, align 4, !tbaa !3
  store ptr null, ptr %3, align 8
  store i32 1, ptr %13, align 4
  br label %104

104:                                              ; preds = %102, %100, %92
  call void @llvm.lifetime.end.p0(i64 8, ptr %9) #15
  call void @llvm.lifetime.end.p0(i64 4, ptr %8) #15
  call void @llvm.lifetime.end.p0(i64 4, ptr %7) #15
  call void @llvm.lifetime.end.p0(i64 4, ptr %6) #15
  %105 = load ptr, ptr %3, align 8
  ret ptr %105
}